Certificate:
    Data:
        Version: 3 (0x2)
        Serial Number: 30 (0x1e)
        Signature Algorithm: md5WithRSAEncryption
        Issuer: emailAddress=certadmin@credit2go.cn, C=CN, O=Jixin, Inc., OU=Infomation Security, OU=credit2go.cn, CN=CreditGo Trust Network
        Validity
            Not Before: Mar  7 01:59:56 2016 GMT
            Not After : Mar  8 01:59:56 2019 GMT
        Subject: C=CN, ST=SH, L=Shanghai, O=credit2go.cn, OU=CloudService, CN=yibao_sit/emailAddress=service@credit2go.cn
        Subject Public Key Info:
            Public Key Algorithm: rsaEncryption
            RSA Public Key: (2048 bit)
                Modulus (2048 bit):
                    00:d0:ad:22:93:44:72:8e:23:b3:cb:d7:08:17:d0:
                    9d:15:e1:e9:4a:18:5e:2a:c7:d5:0e:a3:e7:d5:59:
                    51:ea:6c:d6:c8:76:85:42:8b:a2:70:8b:b9:5f:34:
                    c4:2c:ac:a9:ea:61:b3:1d:5a:8d:10:ac:6c:34:7b:
                    e0:d1:de:4f:34:24:cd:38:fb:86:74:f1:f9:ba:d8:
                    fa:88:11:57:5b:f6:13:c8:ff:b2:90:8f:4d:00:cb:
                    fe:9b:78:76:91:29:7b:23:97:52:a2:1d:11:0d:f1:
                    56:95:4a:be:e1:37:90:76:24:be:f2:03:31:15:8e:
                    06:b7:47:33:d2:eb:6c:05:d0:d9:e0:6f:0b:ca:3a:
                    38:8a:e1:34:3c:67:a0:8d:48:3f:ee:bd:02:b0:0a:
                    19:57:a1:5c:15:a0:5e:a5:7e:b9:9c:56:f4:1d:9f:
                    33:58:67:c5:7b:dc:be:6a:f3:a9:03:18:ea:ef:d8:
                    71:35:20:ef:00:59:87:28:c8:41:7b:9c:46:e8:17:
                    05:e6:9d:77:e6:e5:1d:a5:bd:de:3b:08:21:e4:bc:
                    01:ee:a5:40:33:35:fe:a2:d6:01:d6:ee:9c:4d:f1:
                    fe:1a:d1:d9:ac:1b:e7:30:3d:bb:dd:d8:33:89:91:
                    a8:bb:7d:fd:83:5e:c5:0f:cf:14:bb:10:55:9c:ea:
                    59:05
                Exponent: 65537 (0x10001)
        X509v3 extensions:
            X509v3 Basic Constraints: 
                CA:FALSE
            Netscape Cert Type: 
                Object Signing
            X509v3 Key Usage: 
                Digital Signature, Non Repudiation, Key Encipherment
            X509v3 Subject Key Identifier: 
                22:F6:63:B8:0C:FF:2E:A7:A0:64:4F:20:A3:EE:2E:26:63:6E:49:06
            X509v3 Authority Key Identifier: 
                keyid:F1:C7:B5:81:EF:55:36:BD:62:6E:45:6C:15:EB:FF:B5:A3:37:CF:E1
                DirName:/emailAddress=certadmin@credit2go.cn/C=CN/O=Jixin, Inc./OU=Infomation Security/OU=credit2go.cn/CN=CreditGo Trust Network
                serial:9A:B7:C6:45:9A:EA:9A:98

    Signature Algorithm: md5WithRSAEncryption
        1b:60:aa:0b:4d:25:ca:4f:70:d7:0e:90:fd:07:ff:f7:0f:22:
        ce:9d:c7:f0:19:ba:dd:09:26:6d:e4:bc:e9:43:35:c7:c6:75:
        6d:c6:ad:09:cb:ad:81:b0:5d:ce:1b:2d:12:01:e7:e2:4c:6e:
        2c:11:c9:b8:f2:76:df:12:d5:47:1f:90:9c:f4:dd:04:dc:9e:
        4f:40:d9:6f:6d:f1:98:8c:7a:97:d4:13:f8:11:43:66:1e:dc:
        d2:ee:f8:2b:d8:1b:b0:34:0f:ec:78:da:a4:e4:b3:82:c9:f8:
        ae:06:22:c0:2d:19:87:9d:1c:28:18:83:fc:b5:48:51:a7:ed:
        30:66:19:e8:8d:7c:02:23:e0:b0:5f:f6:e8:6c:82:73:22:a5:
        c3:b1:c0:9f:93:29:84:91:50:75:a3:d2:3d:d9:58:33:7f:87:
        f6:3c:64:f5:dc:4f:41:fd:4d:af:c0:d7:d7:88:56:47:35:94:
        35:e9:11:f4:a1:74:60:72:f1:e7:31:b2:8e:18:3c:f4:48:2b:
        94:39:c0:7d:0c:70:ee:83:ef:0e:8a:3a:b9:93:e1:62:02:ff:
        91:ea:69:4d:d2:0b:f5:8a:b2:29:9b:dd:52:55:94:04:93:e2:
        e4:da:e2:73:01:a4:ed:b6:2f:31:d0:dd:06:bc:dc:d1:15:ee:
        36:22:64:49:bd:a8:e9:e2:d8:1f:c0:95:e0:a3:bc:6f:c0:02:
        01:2b:a4:f2:75:4d:70:41:fa:eb:26:2e:f7:7b:22:39:1f:2a:
        e5:56:42:07:48:74:c4:ca:4d:e3:ad:c3:75:29:06:62:dc:a6:
        c0:2b:a2:c3:bd:b6:88:8d:62:62:dd:30:4d:36:03:97:18:cc:
        77:27:54:9b:3b:51:89:8e:3f:99:35:1d:83:55:e0:9f:27:84:
        69:ea:70:34:da:b0:9e:7b:85:1a:28:7f:88:98:13:6f:62:0c:
        c3:c2:d2:24:b3:49:69:cb:60:36:6e:48:76:78:1f:9c:94:90:
        97:66:4d:31:09:cc:b8:f1:b9:c4:8e:43:94:9d:1f:e0:82:2b:
        b1:4e:45:ec:12:48:62:54:ff:70:c4:72:85:b9:68:6f:d4:3a:
        4f:a2:26:a1:b8:ac:45:0a:76:08:82:c0:a7:1b:88:06:1b:b6:
        33:e3:75:69:17:e6:de:73:00:b7:85:92:b9:63:28:b2:4c:6a:
        4f:4e:1e:0e:56:8f:8f:59:1b:ea:d7:c5:c5:c8:a1:08:27:e2:
        bc:67:63:cc:12:df:38:c0:4a:79:7c:59:3b:db:7c:4e:5b:5d:
        07:89:cb:f7:9d:b3:ce:49:66:54:cf:17:f6:38:8b:d2:17:2a:
        db:b7:bf:09:f5:36:be:8f
-----BEGIN CERTIFICATE-----
MIIF2TCCA8GgAwIBAgIBHjANBgkqhkiG9w0BAQQFADCBoDElMCMGCSqGSIb3DQEJ
ARYWY2VydGFkbWluQGNyZWRpdDJnby5jbjELMAkGA1UEBhMCQ04xFDASBgNVBAoT
C0ppeGluLCBJbmMuMRwwGgYDVQQLExNJbmZvbWF0aW9uIFNlY3VyaXR5MRUwEwYD
VQQLEwxjcmVkaXQyZ28uY24xHzAdBgNVBAMTFkNyZWRpdEdvIFRydXN0IE5ldHdv
cmswHhcNMTYwMzA3MDE1OTU2WhcNMTkwMzA4MDE1OTU2WjCBlDELMAkGA1UEBhMC
Q04xCzAJBgNVBAgTAlNIMREwDwYDVQQHEwhTaGFuZ2hhaTEVMBMGA1UEChMMY3Jl
ZGl0MmdvLmNuMRUwEwYDVQQLEwxDbG91ZFNlcnZpY2UxEjAQBgNVBAMUCXlpYmFv
X3NpdDEjMCEGCSqGSIb3DQEJARYUc2VydmljZUBjcmVkaXQyZ28uY24wggEiMA0G
CSqGSIb3DQEBAQUAA4IBDwAwggEKAoIBAQDQrSKTRHKOI7PL1wgX0J0V4elKGF4q
x9UOo+fVWVHqbNbIdoVCi6Jwi7lfNMQsrKnqYbMdWo0QrGw0e+DR3k80JM04+4Z0
8fm62PqIEVdb9hPI/7KQj00Ay/6beHaRKXsjl1KiHREN8VaVSr7hN5B2JL7yAzEV
jga3RzPS62wF0NngbwvKOjiK4TQ8Z6CNSD/uvQKwChlXoVwVoF6lfrmcVvQdnzNY
Z8V73L5q86kDGOrv2HE1IO8AWYcoyEF7nEboFwXmnXfm5R2lvd47CCHkvAHupUAz
Nf6i1gHW7pxN8f4a0dmsG+cwPbvd2DOJkai7ff2DXsUPzxS7EFWc6lkFAgMBAAGj
ggEmMIIBIjAJBgNVHRMEAjAAMBEGCWCGSAGG+EIBAQQEAwIEEDALBgNVHQ8EBAMC
BeAwHQYDVR0OBBYEFCL2Y7gM/y6noGRPIKPuLiZjbkkGMIHVBgNVHSMEgc0wgcqA
FPHHtYHvVTa9Ym5FbBXr/7WjN8/hoYGmpIGjMIGgMSUwIwYJKoZIhvcNAQkBFhZj
ZXJ0YWRtaW5AY3JlZGl0MmdvLmNuMQswCQYDVQQGEwJDTjEUMBIGA1UEChMLSml4
aW4sIEluYy4xHDAaBgNVBAsTE0luZm9tYXRpb24gU2VjdXJpdHkxFTATBgNVBAsT
DGNyZWRpdDJnby5jbjEfMB0GA1UEAxMWQ3JlZGl0R28gVHJ1c3QgTmV0d29ya4IJ
AJq3xkWa6pqYMA0GCSqGSIb3DQEBBAUAA4ICAQAbYKoLTSXKT3DXDpD9B//3DyLO
ncfwGbrdCSZt5LzpQzXHxnVtxq0Jy62BsF3OGy0SAefiTG4sEcm48nbfEtVHH5Cc
9N0E3J5PQNlvbfGYjHqX1BP4EUNmHtzS7vgr2BuwNA/seNqk5LOCyfiuBiLALRmH
nRwoGIP8tUhRp+0wZhnojXwCI+CwX/bobIJzIqXDscCfkymEkVB1o9I92Vgzf4f2
PGT13E9B/U2vwNfXiFZHNZQ16RH0oXRgcvHnMbKOGDz0SCuUOcB9DHDug+8Oijq5
k+FiAv+R6mlN0gv1irIpm91SVZQEk+Lk2uJzAaTtti8x0N0GvNzRFe42ImRJvajp
4tgfwJXgo7xvwAIBK6TydU1wQfrrJi73eyI5HyrlVkIHSHTEyk3jrcN1KQZi3KbA
K6LDvbaIjWJi3TBNNgOXGMx3J1SbO1GJjj+ZNR2DVeCfJ4Rp6nA02rCee4UaKH+I
mBNvYgzDwtIks0lpy2A2bkh2eB+clJCXZk0xCcy48bnEjkOUnR/ggiuxTkXsEkhi
VP9wxHKFuWhv1DpPoiahuKxFCnYIgsCnG4gGG7Yz43VpF+becwC3hZK5YyiyTGpP
Th4OVo+PWRvq18XFyKEIJ+K8Z2PMEt84wEp5fFk723xOW10Hicv3nbPOSWZUzxf2
OIvSFyrbt78J9Ta+jw==
-----END CERTIFICATE-----
